; Function Attrs: mustprogress nounwind uwtable
define void @_ZN5folly14AsyncUDPSocket9pauseReadEv(ptr noundef nonnull align 16 dereferenceable(768) initializes((192, 200)) %0) unnamed_addr #0 align 2 personality ptr @__gxx_personality_v0 {
  %2 = getelementptr inbounds nuw i8, ptr %0, i64 192
  store ptr null, ptr %2, align 16, !tbaa !155
  %3 = invoke noundef zeroext i1 @_ZN5folly12EventHandler12registerImplEtb(ptr noundef nonnull align 16 dereferenceable(768) %0, i16 noundef zeroext 16, i1 noundef zeroext false)
          to label %_ZN5folly14AsyncUDPSocket18updateRegistrationEv.exit unwind label %4

4:                                                ; preds = %1
  %5 = landingpad { ptr, i32 }
          catch ptr null
  %6 = extractvalue { ptr, i32 } %5, 0
  tail call void @__clang_call_terminate(ptr %6) #38
  unreachable

_ZN5folly14AsyncUDPSocket18updateRegistrationEv.exit: ; preds = %1
  ret void
}